; Function Attrs: mustprogress uwtable
define void @_ZNK2cv16BOWKMeansTrainer7clusterERKNS_3MatE(ptr dead_on_unwind noalias writable sret(%"class.cv::Mat") align 8 %0, ptr nocapture noundef nonnull readonly align 8 dereferenceable(64) %1, ptr noundef nonnull align 8 dereferenceable(96) %2) unnamed_addr #4 align 2 personality ptr @__gxx_personality_v0 {
  %4 = alloca %"class.cv::utils::trace::details::Region", align 8
  %5 = alloca %"class.cv::Mat", align 8
  %6 = alloca %"class.cv::_InputArray", align 8
  %7 = alloca %"class.cv::_InputOutputArray", align 8
  %8 = alloca %"class.cv::_OutputArray", align 8
  call void @_ZN2cv5utils5trace7details6RegionC1ERKNS3_21LocationStaticStorageE(ptr noundef nonnull align 8 dereferenceable(12) %4, ptr noundef nonnull align 8 dereferenceable(32) @_ZZNK2cv16BOWKMeansTrainer7clusterERKNS_3MatEE25__cv_trace_location_fn111)
  call void @_ZN2cv3MatC1Ev(ptr noundef nonnull align 8 dereferenceable(96) %5) #20
  call void @_ZN2cv3MatC1Ev(ptr noundef nonnull align 8 dereferenceable(96) %0) #20
  %9 = getelementptr inbounds i8, ptr %6, i64 16
  store i32 0, ptr %9, align 8
  %10 = getelementptr inbounds i8, ptr %6, i64 20
  store i32 0, ptr %10, align 4
  store i32 16842752, ptr %6, align 8
  %11 = getelementptr inbounds i8, ptr %6, i64 8
  store ptr %2, ptr %11, align 8
  %12 = getelementptr inbounds i8, ptr %1, i64 36
  %13 = load i32, ptr %12, align 4
  %14 = getelementptr inbounds i8, ptr %7, i64 8
  %15 = getelementptr inbounds i8, ptr %7, i64 16
  store i64 0, ptr %15, align 8
  store i32 50397184, ptr %7, align 8
  store ptr %5, ptr %14, align 8
  %16 = getelementptr inbounds i8, ptr %1, i64 40
  %.sroa.0.0.copyload = load i64, ptr %16, align 8
  %.sroa.2.0..sroa_idx = getelementptr inbounds i8, ptr %1, i64 48
  %.sroa.2.0.copyload = load double, ptr %.sroa.2.0..sroa_idx, align 8
  %17 = getelementptr inbounds i8, ptr %1, i64 56
  %18 = load i32, ptr %17, align 8
  %19 = getelementptr inbounds i8, ptr %1, i64 60
  %20 = load i32, ptr %19, align 4
  %21 = getelementptr inbounds i8, ptr %8, i64 8
  %22 = getelementptr inbounds i8, ptr %8, i64 16
  store i64 0, ptr %22, align 8
  store i32 33619968, ptr %8, align 8
  store ptr %0, ptr %21, align 8
  %23 = invoke noundef double @_ZN2cv6kmeansERKNS_11_InputArrayEiRKNS_17_InputOutputArrayENS_12TermCriteriaEiiRKNS_12_OutputArrayE(ptr noundef nonnull align 8 dereferenceable(24) %6, i32 noundef %13, ptr noundef nonnull align 8 dereferenceable(24) %7, i64 %.sroa.0.0.copyload, double %.sroa.2.0.copyload, i32 noundef %18, i32 noundef %20, ptr noundef nonnull align 8 dereferenceable(24) %8)
          to label %24 unwind label %31

24:                                               ; preds = %3
  call void @_ZN2cv3MatD1Ev(ptr noundef nonnull align 8 dereferenceable(96) %5) #20
  %25 = getelementptr inbounds i8, ptr %4, i64 8
  %26 = load i32, ptr %25, align 8
  %.not.i = icmp eq i32 %26, 0
  br i1 %.not.i, label %_ZN2cv5utils5trace7details6RegionD2Ev.exit, label %27

27:                                               ; preds = %24
  invoke void @_ZN2cv5utils5trace7details6Region7destroyEv(ptr noundef nonnull align 8 dereferenceable(12) %4)
          to label %_ZN2cv5utils5trace7details6RegionD2Ev.exit unwind label %28

28:                                               ; preds = %27
  %29 = landingpad { ptr, i32 }
          catch ptr null
  %30 = extractvalue { ptr, i32 } %29, 0
  call void @__clang_call_terminate(ptr %30) #22
  unreachable

_ZN2cv5utils5trace7details6RegionD2Ev.exit:       ; preds = %24, %27
  ret void

31:                                               ; preds = %3
  %32 = landingpad { ptr, i32 }
          cleanup
  call void @_ZN2cv3MatD1Ev(ptr noundef nonnull align 8 dereferenceable(96) %0) #20
  call void @_ZN2cv3MatD1Ev(ptr noundef nonnull align 8 dereferenceable(96) %5) #20
  call void @_ZN2cv5utils5trace7details6RegionD2Ev(ptr noundef nonnull align 8 dereferenceable(12) %4) #20
  resume { ptr, i32 } %32
}